target datalayout = "e-m:e-p270:32:32-p271:32:32-p272:64:64-i64:64-i128:128-f80:128-n8:16:32:64-S128"
target triple = "x86_64-pc-linux-gnu"

@cancel_pressed = dso_local global i32 0, align 4
@always_ignore_sigpipe = internal global i8 0, align 1
@stdout = external global ptr, align 8
@.str.21 = private unnamed_addr constant [13 x i8] c"Interrupted\0A\00", align 1

; Function Attrs: nounwind uwtable
define dso_local void @restore_sigpipe_trap() #0 {
  %1 = load i8, ptr @always_ignore_sigpipe, align 1, !range !4, !noundef !5
  %2 = trunc i8 %1 to i1
  %3 = select i1 %2, ptr inttoptr (i64 1 to ptr), ptr null
  call void @pqsignal_fe(i32 noundef 13, ptr noundef %3)
  ret void
}

; Function Attrs: nounwind uwtable
define dso_local void @ClosePager(ptr noundef %0) #0 {
  %2 = alloca ptr, align 8
  store ptr %0, ptr %2, align 8
  %3 = load ptr, ptr %2, align 8
  %4 = icmp ne ptr %3, null
  br i1 %4, label %5, label %18

5:                                                ; preds = %1
  %6 = load ptr, ptr %2, align 8
  %7 = load ptr, ptr @stdout, align 8
  %8 = icmp ne ptr %6, %7
  br i1 %8, label %9, label %18

9:                                                ; preds = %5
  %10 = load volatile i32, ptr @cancel_pressed, align 4
  %11 = icmp ne i32 %10, 0
  br i1 %11, label %12, label %15

12:                                               ; preds = %9
  %13 = load ptr, ptr %2, align 8
  %14 = call i32 (ptr, ptr, ...) @pg_fprintf(ptr noundef %13, ptr noundef @.str.21)
  br label %15

15:                                               ; preds = %12, %9
  %16 = load ptr, ptr %2, align 8
  %17 = call i32 @pclose(ptr noundef %16)
  call void @restore_sigpipe_trap()
  br label %18

18:                                               ; preds = %15, %5, %1
  ret void
}