; Function Attrs: nounwind uwtable
define dso_local void @ClosePager(ptr noundef %0) local_unnamed_addr #3 {
  %.not = icmp eq ptr %0, null
  %2 = load ptr, ptr @stdout, align 8
  %.not4 = icmp eq ptr %0, %2
  %or.cond = select i1 %.not, i1 true, i1 %.not4
  br i1 %or.cond, label %12, label %3

3:                                                ; preds = %1
  %4 = load volatile i32, ptr @cancel_pressed, align 4
  %.not5 = icmp eq i32 %4, 0
  br i1 %.not5, label %7, label %5

5:                                                ; preds = %3
  %6 = tail call i32 (ptr, ptr, ...) @pg_fprintf(ptr noundef nonnull %0, ptr noundef nonnull @.str.21) #19
  br label %7

7:                                                ; preds = %5, %3
  %8 = tail call i32 @pclose(ptr noundef nonnull %0)
  %9 = load i8, ptr @always_ignore_sigpipe, align 1, !range !6, !noundef !7
  %10 = trunc nuw i8 %9 to i1
  %11 = select i1 %10, ptr inttoptr (i64 1 to ptr), ptr null
  tail call void @pqsignal_fe(i32 noundef 13, ptr noundef %11) #19
  br label %12

12:                                               ; preds = %7, %1
  ret void
}